; Function Attrs: nounwind uwtable
define void @Acb_NtkFindNodes_rec(ptr noundef readonly captures(none) %0, i32 noundef %1, ptr noundef captures(none) %2) local_unnamed_addr #0 {
  %4 = getelementptr i8, ptr %0, i64 96
  %.val18 = load i32, ptr %4, align 8
  %5 = getelementptr i8, ptr %0, i64 264
  %.val19 = load ptr, ptr %5, align 8
  %6 = sext i32 %1 to i64
  %7 = getelementptr inbounds i32, ptr %.val19, i64 %6
  %8 = load i32, ptr %7, align 4
  %.not = icmp eq i32 %8, %.val18
  store i32 %.val18, ptr %7, align 4
  br i1 %.not, label %58, label %9

9:                                                ; preds = %3
  %10 = getelementptr i8, ptr %0, i64 120
  %.val = load ptr, ptr %10, align 8
  %11 = getelementptr inbounds i8, ptr %.val, i64 %6
  %12 = load i8, ptr %11, align 1
  %.not20 = icmp eq i8 %12, 3
  br i1 %.not20, label %58, label %13

13:                                               ; preds = %9
  %14 = getelementptr i8, ptr %0, i64 136
  %.val16 = load ptr, ptr %14, align 8
  %15 = getelementptr i8, ptr %0, i64 152
  %.val17 = load ptr, ptr %15, align 8
  %16 = getelementptr inbounds i32, ptr %.val16, i64 %6
  %17 = load i32, ptr %16, align 4
  %18 = sext i32 %17 to i64
  %19 = getelementptr inbounds i32, ptr %.val17, i64 %18
  %20 = load i32, ptr %19, align 4
  %21 = icmp sgt i32 %20, 0
  br i1 %21, label %.lr.ph, label %.critedge

.lr.ph:                                           ; preds = %13, %.lr.ph
  %indvars.iv = phi i64 [ %indvars.iv.next, %.lr.ph ], [ 0, %13 ]
  %indvars.iv.next = add nuw nsw i64 %indvars.iv, 1
  %22 = getelementptr inbounds nuw i32, ptr %19, i64 %indvars.iv.next
  %23 = load i32, ptr %22, align 4
  tail call void @Acb_NtkFindNodes_rec(ptr noundef %0, i32 noundef %23, ptr noundef %2)
  %24 = load i32, ptr %19, align 4
  %25 = sext i32 %24 to i64
  %26 = icmp slt i64 %indvars.iv.next, %25
  br i1 %26, label %.lr.ph, label %.critedge, !llvm.loop !59

.critedge:                                        ; preds = %.lr.ph, %13
  %27 = getelementptr inbounds nuw i8, ptr %2, i64 4
  %28 = load i32, ptr %27, align 4
  %29 = load i32, ptr %2, align 8
  %30 = icmp eq i32 %28, %29
  br i1 %30, label %31, label %.Vec_IntGrow.exit10_crit_edge.i

.Vec_IntGrow.exit10_crit_edge.i:                  ; preds = %.critedge
  %.phi.trans.insert.i = getelementptr inbounds nuw i8, ptr %2, i64 8
  %.pre.i = load ptr, ptr %.phi.trans.insert.i, align 8
  br label %Vec_IntPush.exit

31:                                               ; preds = %.critedge
  %32 = icmp slt i32 %28, 16
  br i1 %32, label %33, label %41

33:                                               ; preds = %31
  %34 = getelementptr inbounds nuw i8, ptr %2, i64 8
  %35 = load ptr, ptr %34, align 8
  %.not9.i.i = icmp eq ptr %35, null
  br i1 %.not9.i.i, label %38, label %36

36:                                               ; preds = %33
  %37 = tail call dereferenceable_or_null(64) ptr @realloc(ptr noundef nonnull %35, i64 noundef 64) #30
  br label %Vec_IntGrow.exit.i

38:                                               ; preds = %33
  %39 = tail call noalias dereferenceable_or_null(64) ptr @malloc(i64 noundef 64) #29
  br label %Vec_IntGrow.exit.i

Vec_IntGrow.exit.i:                               ; preds = %38, %36
  %40 = phi ptr [ %37, %36 ], [ %39, %38 ]
  store ptr %40, ptr %34, align 8
  store i32 16, ptr %2, align 8
  br label %Vec_IntPush.exit

41:                                               ; preds = %31
  %42 = shl nuw nsw i32 %28, 1
  %43 = getelementptr inbounds nuw i8, ptr %2, i64 8
  %44 = load ptr, ptr %43, align 8
  %.not9.i9.i = icmp eq ptr %44, null
  %45 = zext nneg i32 %42 to i64
  %46 = shl nuw nsw i64 %45, 2
  br i1 %.not9.i9.i, label %49, label %47

47:                                               ; preds = %41
  %48 = tail call ptr @realloc(ptr noundef nonnull %44, i64 noundef %46) #30
  br label %51

49:                                               ; preds = %41
  %50 = tail call noalias ptr @malloc(i64 noundef %46) #29
  br label %51

51:                                               ; preds = %49, %47
  %52 = phi ptr [ %48, %47 ], [ %50, %49 ]
  store ptr %52, ptr %43, align 8
  store i32 %42, ptr %2, align 8
  br label %Vec_IntPush.exit

Vec_IntPush.exit:                                 ; preds = %.Vec_IntGrow.exit10_crit_edge.i, %Vec_IntGrow.exit.i, %51
  %53 = phi ptr [ %.pre.i, %.Vec_IntGrow.exit10_crit_edge.i ], [ %52, %51 ], [ %40, %Vec_IntGrow.exit.i ]
  %54 = load i32, ptr %27, align 4
  %55 = add nsw i32 %54, 1
  store i32 %55, ptr %27, align 4
  %56 = sext i32 %54 to i64
  %57 = getelementptr inbounds i32, ptr %53, i64 %56
  store i32 %1, ptr %57, align 4
  br label %58

58:                                               ; preds = %9, %3, %Vec_IntPush.exit
  ret void
}